target datalayout = "e-m:e-p270:32:32-p271:32:32-p272:64:64-i64:64-i128:128-f80:128-n8:16:32:64-S128"
target triple = "x86_64-pc-linux-gnu"

%"struct.pkpy::Bytes" = type <{ ptr, i32, [4 x i8] }>

; Function Attrs: mustprogress nounwind uwtable
define void @_ZN4pkpy5BytesC2EOS0_(ptr noundef nonnull align 8 dereferenceable(12) %0, ptr noundef nonnull align 8 dereferenceable(12) %1) unnamed_addr #4 align 2 {
  %3 = alloca ptr, align 8
  %4 = alloca ptr, align 8
  store ptr %0, ptr %3, align 8
  store ptr %1, ptr %4, align 8
  %5 = load ptr, ptr %3, align 8
  %6 = load ptr, ptr %4, align 8
  %7 = getelementptr inbounds %"struct.pkpy::Bytes", ptr %6, i32 0, i32 0
  %8 = load ptr, ptr %7, align 8
  %9 = getelementptr inbounds %"struct.pkpy::Bytes", ptr %5, i32 0, i32 0
  store ptr %8, ptr %9, align 8
  %10 = load ptr, ptr %4, align 8
  %11 = getelementptr inbounds %"struct.pkpy::Bytes", ptr %10, i32 0, i32 1
  %12 = load i32, ptr %11, align 8
  %13 = getelementptr inbounds %"struct.pkpy::Bytes", ptr %5, i32 0, i32 1
  store i32 %12, ptr %13, align 8
  %14 = load ptr, ptr %4, align 8
  %15 = getelementptr inbounds %"struct.pkpy::Bytes", ptr %14, i32 0, i32 0
  store ptr null, ptr %15, align 8
  %16 = load ptr, ptr %4, align 8
  %17 = getelementptr inbounds %"struct.pkpy::Bytes", ptr %16, i32 0, i32 1
  store i32 0, ptr %17, align 8
  ret void
}