; Function Attrs: mustprogress nofree norecurse nosync nounwind willreturn memory(argmem: readwrite) uwtable
define void @_ZN4pkpy5BytesC2EOS0_(ptr nocapture noundef nonnull writeonly align 8 dereferenceable(12) %0, ptr nocapture noundef nonnull align 8 dereferenceable(12) %1) unnamed_addr #6 align 2 {
  %3 = load ptr, ptr %1, align 8
  store ptr %3, ptr %0, align 8
  %4 = getelementptr inbounds i8, ptr %1, i64 8
  %5 = load i32, ptr %4, align 8
  %6 = getelementptr inbounds i8, ptr %0, i64 8
  store i32 %5, ptr %6, align 8
  store ptr null, ptr %1, align 8
  store i32 0, ptr %4, align 8
  ret void
}